; Function Attrs: mustprogress uwtable
define hidden void @_ZN11opencv_onnx18OperatorSetIdProto9MergeFromERKS0_(ptr noundef nonnull align 8 dereferenceable(40) %0, ptr noundef nonnull readonly align 8 captures(none) dereferenceable(40) %1) local_unnamed_addr #3 align 2 personality ptr @__gxx_personality_v0 {
  %3 = getelementptr inbounds nuw i8, ptr %1, i64 16
  %4 = load i32, ptr %3, align 8, !tbaa !51
  %5 = and i32 %4, 3
  %.not = icmp eq i32 %5, 0
  br i1 %.not, label %35, label %6

6:                                                ; preds = %2
  %7 = and i32 %4, 1
  %.not8 = icmp eq i32 %7, 0
  br i1 %.not8, label %25, label %8

8:                                                ; preds = %6
  %9 = getelementptr inbounds nuw i8, ptr %1, i64 24
  %10 = load ptr, ptr %9, align 8, !tbaa !41
  %11 = ptrtoint ptr %10 to i64
  %12 = and i64 %11, -2
  %13 = inttoptr i64 %12 to ptr
  %14 = getelementptr inbounds nuw i8, ptr %0, i64 16
  %15 = load i32, ptr %14, align 8, !tbaa !51
  %16 = or i32 %15, 1
  store i32 %16, ptr %14, align 8, !tbaa !51
  %17 = getelementptr inbounds nuw i8, ptr %0, i64 24
  %18 = getelementptr inbounds nuw i8, ptr %0, i64 8
  %19 = load i64, ptr %18, align 8, !tbaa !33
  %20 = and i64 %19, 1
  %.not.i = icmp eq i64 %20, 0
  %21 = and i64 %19, -4
  %22 = inttoptr i64 %21 to ptr
  br i1 %.not.i, label %_ZNK6google8protobuf11MessageLite21GetArenaForAllocationEv.exit, label %23, !prof !43

23:                                               ; preds = %8
  %24 = load ptr, ptr %22, align 8, !tbaa !44
  br label %_ZNK6google8protobuf11MessageLite21GetArenaForAllocationEv.exit

_ZNK6google8protobuf11MessageLite21GetArenaForAllocationEv.exit: ; preds = %8, %23
  %.0.i.i = phi ptr [ %24, %23 ], [ %22, %8 ]
  tail call void @_ZN6google8protobuf8internal14ArenaStringPtr3SetENS2_12EmptyDefaultERKNSt7__cxx1112basic_stringIcSt11char_traitsIcESaIcEEEPNS0_5ArenaE(ptr noundef nonnull align 8 dereferenceable(8) %17, ptr noundef nonnull align 8 dereferenceable(32) %13, ptr noundef %.0.i.i)
  br label %25

25:                                               ; preds = %_ZNK6google8protobuf11MessageLite21GetArenaForAllocationEv.exit, %6
  %26 = and i32 %4, 2
  %.not9 = icmp eq i32 %26, 0
  br i1 %.not9, label %31, label %27

27:                                               ; preds = %25
  %28 = getelementptr inbounds nuw i8, ptr %1, i64 32
  %29 = load i64, ptr %28, align 8, !tbaa !179
  %30 = getelementptr inbounds nuw i8, ptr %0, i64 32
  store i64 %29, ptr %30, align 8, !tbaa !179
  br label %31

31:                                               ; preds = %27, %25
  %32 = getelementptr inbounds nuw i8, ptr %0, i64 16
  %33 = load i32, ptr %32, align 8, !tbaa !51
  %34 = or i32 %33, %4
  store i32 %34, ptr %32, align 8, !tbaa !51
  br label %35

35:                                               ; preds = %31, %2
  %36 = getelementptr inbounds nuw i8, ptr %1, i64 8
  %37 = load i64, ptr %36, align 8, !tbaa !33
  %38 = and i64 %37, 1
  %.not10 = icmp eq i64 %38, 0
  br i1 %.not10, label %_ZN6google8protobuf8internal16InternalMetadata9MergeFromINS0_15UnknownFieldSetEEEvRKS2_.exit, label %_ZNK6google8protobuf8internal16InternalMetadata14unknown_fieldsINS0_15UnknownFieldSetEEERKT_PFS7_vE.exit

_ZNK6google8protobuf8internal16InternalMetadata14unknown_fieldsINS0_15UnknownFieldSetEEERKT_PFS7_vE.exit: ; preds = %35
  %39 = getelementptr inbounds nuw i8, ptr %0, i64 8
  %40 = and i64 %37, -4
  %41 = inttoptr i64 %40 to ptr
  %42 = getelementptr inbounds nuw i8, ptr %41, i64 8
  tail call void @_ZN6google8protobuf8internal16InternalMetadata11DoMergeFromINS0_15UnknownFieldSetEEEvRKT_(ptr noundef nonnull align 8 dereferenceable(8) %39, ptr noundef nonnull align 8 dereferenceable(24) %42)
  br label %_ZN6google8protobuf8internal16InternalMetadata9MergeFromINS0_15UnknownFieldSetEEEvRKS2_.exit

_ZN6google8protobuf8internal16InternalMetadata9MergeFromINS0_15UnknownFieldSetEEEvRKS2_.exit: ; preds = %35, %_ZNK6google8protobuf8internal16InternalMetadata14unknown_fieldsINS0_15UnknownFieldSetEEERKT_PFS7_vE.exit
  ret void
}